target datalayout = "e-m:e-p270:32:32-p271:32:32-p272:64:64-i64:64-i128:128-f80:128-n8:16:32:64-S128"
target triple = "x86_64-unknown-linux-gnu"

%"class.std::__cxx11::basic_string" = type { %"struct.std::__cxx11::basic_string<char>::_Alloc_hider", i64, %union.anon }
%"struct.std::__cxx11::basic_string<char>::_Alloc_hider" = type { ptr }
%union.anon = type { i64, [8 x i8] }
%"class.openvdb::v11_0::io::GridDescriptor" = type { %"class.std::__cxx11::basic_string", %"class.std::__cxx11::basic_string", %"class.std::__cxx11::basic_string", %"class.std::__cxx11::basic_string", i8, i64, i64, i64 }

@_ZN7openvdb5v11_02io12_GLOBAL__N_126HALF_FLOAT_TYPENAME_SUFFIXE = internal global ptr @.str.11, align 8

; Function Attrs: mustprogress uwtable
define linkonce_odr void @_ZN7openvdb5v11_011writeStringERSoRKNSt7__cxx1112basic_stringIcSt11char_traitsIcESaIcEEE(ptr noundef nonnull align 8 dereferenceable(8) %os, ptr noundef nonnull align 8 dereferenceable(32) %name) #4 comdat {
entry:
  %os.addr = alloca ptr, align 8
  %name.addr = alloca ptr, align 8
  %size = alloca i32, align 4
  store ptr %os, ptr %os.addr, align 8
  store ptr %name, ptr %name.addr, align 8
  %0 = load ptr, ptr %name.addr, align 8
  %call = call noundef i64 @_ZNKSt7__cxx1112basic_stringIcSt11char_traitsIcESaIcEE4sizeEv(ptr noundef nonnull align 8 dereferenceable(32) %0) #3
  %conv = trunc i64 %call to i32
  store i32 %conv, ptr %size, align 4
  %1 = load ptr, ptr %os.addr, align 8
  %call1 = call noundef nonnull align 8 dereferenceable(8) ptr @_ZNSo5writeEPKcl(ptr noundef nonnull align 8 dereferenceable(8) %1, ptr noundef %size, i64 noundef 4)
  %2 = load ptr, ptr %os.addr, align 8
  %3 = load ptr, ptr %name.addr, align 8
  %call2 = call noundef nonnull align 1 dereferenceable(1) ptr @_ZNKSt7__cxx1112basic_stringIcSt11char_traitsIcESaIcEEixEm(ptr noundef nonnull align 8 dereferenceable(32) %3, i64 noundef 0) #3
  %4 = load i32, ptr %size, align 4
  %conv3 = zext i32 %4 to i64
  %call4 = call noundef nonnull align 8 dereferenceable(8) ptr @_ZNSo5writeEPKcl(ptr noundef nonnull align 8 dereferenceable(8) %2, ptr noundef %call2, i64 noundef %conv3)
  ret void
}

; Function Attrs: mustprogress uwtable
define void @_ZNK7openvdb5v11_02io14GridDescriptor11writeHeaderERSo(ptr noundef nonnull align 8 dereferenceable(160) %this, ptr noundef nonnull align 8 dereferenceable(8) %os) #4 align 2 personality ptr @__gxx_personality_v0 {
entry:
  %this.addr = alloca ptr, align 8
  %os.addr = alloca ptr, align 8
  %gridType = alloca %"class.std::__cxx11::basic_string", align 8
  %exn.slot = alloca ptr, align 8
  %ehselector.slot = alloca i32, align 4
  store ptr %this, ptr %this.addr, align 8
  store ptr %os, ptr %os.addr, align 8
  %this1 = load ptr, ptr %this.addr, align 8
  %0 = load ptr, ptr %os.addr, align 8
  %mUniqueName = getelementptr inbounds %"class.openvdb::v11_0::io::GridDescriptor", ptr %this1, i32 0, i32 1
  call void @_ZN7openvdb5v11_011writeStringERSoRKNSt7__cxx1112basic_stringIcSt11char_traitsIcESaIcEEE(ptr noundef nonnull align 8 dereferenceable(8) %0, ptr noundef nonnull align 8 dereferenceable(32) %mUniqueName)
  %mGridType = getelementptr inbounds %"class.openvdb::v11_0::io::GridDescriptor", ptr %this1, i32 0, i32 3
  call void @_ZNSt7__cxx1112basic_stringIcSt11char_traitsIcESaIcEEC1ERKS4_(ptr noundef nonnull align 8 dereferenceable(32) %gridType, ptr noundef nonnull align 8 dereferenceable(32) %mGridType)
  %mSaveFloatAsHalf = getelementptr inbounds %"class.openvdb::v11_0::io::GridDescriptor", ptr %this1, i32 0, i32 4
  %1 = load i8, ptr %mSaveFloatAsHalf, align 8
  %tobool = trunc i8 %1 to i1
  br i1 %tobool, label %if.then, label %if.end

if.then:                                          ; preds = %entry
  %2 = load ptr, ptr @_ZN7openvdb5v11_02io12_GLOBAL__N_126HALF_FLOAT_TYPENAME_SUFFIXE, align 8
  %call = invoke noundef nonnull align 8 dereferenceable(32) ptr @_ZNSt7__cxx1112basic_stringIcSt11char_traitsIcESaIcEEpLEPKc(ptr noundef nonnull align 8 dereferenceable(32) %gridType, ptr noundef %2)
          to label %invoke.cont unwind label %lpad

invoke.cont:                                      ; preds = %if.then
  br label %if.end

lpad:                                             ; preds = %invoke.cont2, %if.end, %if.then
  %3 = landingpad { ptr, i32 }
          cleanup
  %4 = extractvalue { ptr, i32 } %3, 0
  store ptr %4, ptr %exn.slot, align 8
  %5 = extractvalue { ptr, i32 } %3, 1
  store i32 %5, ptr %ehselector.slot, align 4
  call void @_ZNSt7__cxx1112basic_stringIcSt11char_traitsIcESaIcEED1Ev(ptr noundef nonnull align 8 dereferenceable(32) %gridType) #3
  br label %eh.resume

if.end:                                           ; preds = %invoke.cont, %entry
  %6 = load ptr, ptr %os.addr, align 8
  invoke void @_ZN7openvdb5v11_011writeStringERSoRKNSt7__cxx1112basic_stringIcSt11char_traitsIcESaIcEEE(ptr noundef nonnull align 8 dereferenceable(8) %6, ptr noundef nonnull align 8 dereferenceable(32) %gridType)
          to label %invoke.cont2 unwind label %lpad

invoke.cont2:                                     ; preds = %if.end
  %7 = load ptr, ptr %os.addr, align 8
  %mInstanceParentName = getelementptr inbounds %"class.openvdb::v11_0::io::GridDescriptor", ptr %this1, i32 0, i32 2
  invoke void @_ZN7openvdb5v11_011writeStringERSoRKNSt7__cxx1112basic_stringIcSt11char_traitsIcESaIcEEE(ptr noundef nonnull align 8 dereferenceable(8) %7, ptr noundef nonnull align 8 dereferenceable(32) %mInstanceParentName)
          to label %invoke.cont3 unwind label %lpad

invoke.cont3:                                     ; preds = %invoke.cont2
  call void @_ZNSt7__cxx1112basic_stringIcSt11char_traitsIcESaIcEED1Ev(ptr noundef nonnull align 8 dereferenceable(32) %gridType) #3
  ret void

eh.resume:                                        ; preds = %lpad
  %exn = load ptr, ptr %exn.slot, align 8
  %sel = load i32, ptr %ehselector.slot, align 4
  %lpad.val = insertvalue { ptr, i32 } poison, ptr %exn, 0
  %lpad.val4 = insertvalue { ptr, i32 } %lpad.val, i32 %sel, 1
  resume { ptr, i32 } %lpad.val4
}