; Function Attrs: mustprogress uwtable
define void @_ZNK7openvdb5v11_02io14GridDescriptor11writeHeaderERSo(ptr noundef nonnull align 8 dereferenceable(160) %this, ptr noundef nonnull align 8 dereferenceable(8) %os) local_unnamed_addr #5 align 2 personality ptr @__gxx_personality_v0 {
entry:
  %size.i12 = alloca i32, align 4
  %size.i3 = alloca i32, align 4
  %size.i = alloca i32, align 4
  %gridType = alloca %"class.std::__cxx11::basic_string", align 8
  %mUniqueName = getelementptr inbounds i8, ptr %this, i64 32
  call void @llvm.lifetime.start.p0(i64 4, ptr nonnull %size.i)
  %call.i = tail call noundef i64 @_ZNKSt7__cxx1112basic_stringIcSt11char_traitsIcESaIcEE4sizeEv(ptr noundef nonnull align 8 dereferenceable(32) %mUniqueName) #11
  %conv.i = trunc i64 %call.i to i32
  store i32 %conv.i, ptr %size.i, align 4
  %call1.i = call noundef nonnull align 8 dereferenceable(8) ptr @_ZNSo5writeEPKcl(ptr noundef nonnull align 8 dereferenceable(8) %os, ptr noundef nonnull %size.i, i64 noundef 4)
  %call2.i = call noundef nonnull align 1 dereferenceable(1) ptr @_ZNKSt7__cxx1112basic_stringIcSt11char_traitsIcESaIcEEixEm(ptr noundef nonnull align 8 dereferenceable(32) %mUniqueName, i64 noundef 0) #11
  %0 = load i32, ptr %size.i, align 4
  %conv3.i = zext i32 %0 to i64
  %call4.i = call noundef nonnull align 8 dereferenceable(8) ptr @_ZNSo5writeEPKcl(ptr noundef nonnull align 8 dereferenceable(8) %os, ptr noundef nonnull %call2.i, i64 noundef %conv3.i)
  call void @llvm.lifetime.end.p0(i64 4, ptr nonnull %size.i)
  %mGridType = getelementptr inbounds i8, ptr %this, i64 96
  call void @_ZNSt7__cxx1112basic_stringIcSt11char_traitsIcESaIcEEC1ERKS4_(ptr noundef nonnull align 8 dereferenceable(32) %gridType, ptr noundef nonnull align 8 dereferenceable(32) %mGridType)
  %mSaveFloatAsHalf = getelementptr inbounds i8, ptr %this, i64 128
  %1 = load i8, ptr %mSaveFloatAsHalf, align 8
  %2 = and i8 %1, 1
  %tobool.not = icmp eq i8 %2, 0
  br i1 %tobool.not, label %if.end, label %if.then

if.then:                                          ; preds = %entry
  %call = invoke noundef nonnull align 8 dereferenceable(32) ptr @_ZNSt7__cxx1112basic_stringIcSt11char_traitsIcESaIcEEpLEPKc(ptr noundef nonnull align 8 dereferenceable(32) %gridType, ptr noundef nonnull @.str.11)
          to label %if.end unwind label %lpad

lpad:                                             ; preds = %call1.i15.noexc, %invoke.cont2, %call1.i6.noexc, %if.end, %if.then
  %3 = landingpad { ptr, i32 }
          cleanup
  call void @_ZNSt7__cxx1112basic_stringIcSt11char_traitsIcESaIcEED1Ev(ptr noundef nonnull align 8 dereferenceable(32) %gridType) #11
  resume { ptr, i32 } %3

if.end:                                           ; preds = %if.then, %entry
  call void @llvm.lifetime.start.p0(i64 4, ptr nonnull %size.i3)
  %call.i4 = call noundef i64 @_ZNKSt7__cxx1112basic_stringIcSt11char_traitsIcESaIcEE4sizeEv(ptr noundef nonnull align 8 dereferenceable(32) %gridType) #11
  %conv.i5 = trunc i64 %call.i4 to i32
  store i32 %conv.i5, ptr %size.i3, align 4
  %call1.i610 = invoke noundef nonnull align 8 dereferenceable(8) ptr @_ZNSo5writeEPKcl(ptr noundef nonnull align 8 dereferenceable(8) %os, ptr noundef nonnull %size.i3, i64 noundef 4)
          to label %call1.i6.noexc unwind label %lpad

call1.i6.noexc:                                   ; preds = %if.end
  %call2.i7 = call noundef nonnull align 1 dereferenceable(1) ptr @_ZNKSt7__cxx1112basic_stringIcSt11char_traitsIcESaIcEEixEm(ptr noundef nonnull align 8 dereferenceable(32) %gridType, i64 noundef 0) #11
  %4 = load i32, ptr %size.i3, align 4
  %conv3.i8 = zext i32 %4 to i64
  %call4.i911 = invoke noundef nonnull align 8 dereferenceable(8) ptr @_ZNSo5writeEPKcl(ptr noundef nonnull align 8 dereferenceable(8) %os, ptr noundef nonnull %call2.i7, i64 noundef %conv3.i8)
          to label %invoke.cont2 unwind label %lpad

invoke.cont2:                                     ; preds = %call1.i6.noexc
  call void @llvm.lifetime.end.p0(i64 4, ptr nonnull %size.i3)
  %mInstanceParentName = getelementptr inbounds i8, ptr %this, i64 64
  call void @llvm.lifetime.start.p0(i64 4, ptr nonnull %size.i12)
  %call.i13 = call noundef i64 @_ZNKSt7__cxx1112basic_stringIcSt11char_traitsIcESaIcEE4sizeEv(ptr noundef nonnull align 8 dereferenceable(32) %mInstanceParentName) #11
  %conv.i14 = trunc i64 %call.i13 to i32
  store i32 %conv.i14, ptr %size.i12, align 4
  %call1.i1519 = invoke noundef nonnull align 8 dereferenceable(8) ptr @_ZNSo5writeEPKcl(ptr noundef nonnull align 8 dereferenceable(8) %os, ptr noundef nonnull %size.i12, i64 noundef 4)
          to label %call1.i15.noexc unwind label %lpad

call1.i15.noexc:                                  ; preds = %invoke.cont2
  %call2.i16 = call noundef nonnull align 1 dereferenceable(1) ptr @_ZNKSt7__cxx1112basic_stringIcSt11char_traitsIcESaIcEEixEm(ptr noundef nonnull align 8 dereferenceable(32) %mInstanceParentName, i64 noundef 0) #11
  %5 = load i32, ptr %size.i12, align 4
  %conv3.i17 = zext i32 %5 to i64
  %call4.i1820 = invoke noundef nonnull align 8 dereferenceable(8) ptr @_ZNSo5writeEPKcl(ptr noundef nonnull align 8 dereferenceable(8) %os, ptr noundef nonnull %call2.i16, i64 noundef %conv3.i17)
          to label %invoke.cont3 unwind label %lpad

invoke.cont3:                                     ; preds = %call1.i15.noexc
  call void @llvm.lifetime.end.p0(i64 4, ptr nonnull %size.i12)
  call void @_ZNSt7__cxx1112basic_stringIcSt11char_traitsIcESaIcEED1Ev(ptr noundef nonnull align 8 dereferenceable(32) %gridType) #11
  ret void
}